; Function Attrs: mustprogress uwtable
define hidden noundef ptr @_ZN4cvc58internal6theory5arith6linear21FarkasConflictBuilder14commitConflictEv(ptr noundef nonnull align 8 dereferenceable(58) %0) local_unnamed_addr #4 align 2 personality ptr @__gxx_personality_v0 {
  %2 = getelementptr inbounds nuw i8, ptr %0, i64 48
  %3 = load ptr, ptr %2, align 8, !tbaa !82
  %4 = getelementptr inbounds nuw i8, ptr %3, i64 88
  %5 = load ptr, ptr %4, align 8, !tbaa !96
  %6 = getelementptr inbounds nuw i8, ptr %0, i64 57
  %7 = load i8, ptr %6, align 1, !tbaa !68, !range !86, !noundef !87
  %8 = trunc nuw i8 %7 to i1
  %9 = select i1 %8, ptr %0, ptr null
  %10 = getelementptr inbounds nuw i8, ptr %0, i64 24
  tail call void @_ZN4cvc58internal6theory5arith6linear10Constraint15impliedByFarkasERKSt6vectorIPKS4_SaIS7_EEPKS5_INS0_8RationalESaISC_EEb(ptr noundef nonnull align 8 dereferenceable(145) %5, ptr noundef nonnull align 8 dereferenceable(24) %10, ptr noundef %9, i1 noundef zeroext true)
  store ptr null, ptr %2, align 8, !tbaa !82
  %11 = load ptr, ptr %10, align 8, !tbaa !84
  %12 = getelementptr inbounds nuw i8, ptr %0, i64 32
  %13 = load ptr, ptr %12, align 8, !tbaa !85
  %.not.i.i.i = icmp eq ptr %13, %11
  br i1 %.not.i.i.i, label %_ZNSt6vectorIPKN4cvc58internal6theory5arith6linear10ConstraintESaIS7_EE5clearEv.exit.i, label %14

14:                                               ; preds = %1
  store ptr %11, ptr %12, align 8, !tbaa !85
  br label %_ZNSt6vectorIPKN4cvc58internal6theory5arith6linear10ConstraintESaIS7_EE5clearEv.exit.i

_ZNSt6vectorIPKN4cvc58internal6theory5arith6linear10ConstraintESaIS7_EE5clearEv.exit.i: ; preds = %14, %1
  %15 = getelementptr inbounds nuw i8, ptr %0, i64 56
  store i8 0, ptr %15, align 8, !tbaa !83
  %16 = load i8, ptr %6, align 1, !tbaa !68, !range !86, !noundef !87
  %17 = trunc nuw i8 %16 to i1
  br i1 %17, label %18, label %_ZN4cvc58internal6theory5arith6linear21FarkasConflictBuilder5resetEv.exit

18:                                               ; preds = %_ZNSt6vectorIPKN4cvc58internal6theory5arith6linear10ConstraintESaIS7_EE5clearEv.exit.i
  %19 = load ptr, ptr %0, align 8, !tbaa !88
  %20 = getelementptr inbounds nuw i8, ptr %0, i64 8
  %21 = load ptr, ptr %20, align 8, !tbaa !89
  %.not.i.i1.i = icmp eq ptr %21, %19
  br i1 %.not.i.i1.i, label %_ZN4cvc58internal6theory5arith6linear21FarkasConflictBuilder5resetEv.exit, label %.lr.ph.i.i.i.i.i.i

.lr.ph.i.i.i.i.i.i:                               ; preds = %18, %_ZSt8_DestroyIN4cvc58internal8RationalEEvPT_.exit.i.i.i.i.i.i
  %.05.i.i.i.i.i.i = phi ptr [ %25, %_ZSt8_DestroyIN4cvc58internal8RationalEEvPT_.exit.i.i.i.i.i.i ], [ %19, %18 ]
  invoke void @__gmpq_clear(ptr noundef nonnull align 8 dereferenceable(32) %.05.i.i.i.i.i.i)
          to label %_ZSt8_DestroyIN4cvc58internal8RationalEEvPT_.exit.i.i.i.i.i.i unwind label %22

22:                                               ; preds = %.lr.ph.i.i.i.i.i.i
  %23 = landingpad { ptr, i32 }
          catch ptr null
  %24 = extractvalue { ptr, i32 } %23, 0
  tail call void @__clang_call_terminate(ptr %24) #22
  unreachable

_ZSt8_DestroyIN4cvc58internal8RationalEEvPT_.exit.i.i.i.i.i.i: ; preds = %.lr.ph.i.i.i.i.i.i
  %25 = getelementptr inbounds nuw i8, ptr %.05.i.i.i.i.i.i, i64 32
  %.not.i.i.i.i.i.i = icmp eq ptr %25, %21
  br i1 %.not.i.i.i.i.i.i, label %_ZSt8_DestroyIPN4cvc58internal8RationalES2_EvT_S4_RSaIT0_E.exit.i.i.i, label %.lr.ph.i.i.i.i.i.i, !llvm.loop !90

_ZSt8_DestroyIPN4cvc58internal8RationalES2_EvT_S4_RSaIT0_E.exit.i.i.i: ; preds = %_ZSt8_DestroyIN4cvc58internal8RationalEEvPT_.exit.i.i.i.i.i.i
  store ptr %19, ptr %20, align 8, !tbaa !89
  br label %_ZN4cvc58internal6theory5arith6linear21FarkasConflictBuilder5resetEv.exit

_ZN4cvc58internal6theory5arith6linear21FarkasConflictBuilder5resetEv.exit: ; preds = %_ZNSt6vectorIPKN4cvc58internal6theory5arith6linear10ConstraintESaIS7_EE5clearEv.exit.i, %18, %_ZSt8_DestroyIPN4cvc58internal8RationalES2_EvT_S4_RSaIT0_E.exit.i.i.i
  ret ptr %5
}